; Function Attrs: mustprogress uwtable
define hidden noundef ptr @_ZNK7datalog13udoc_relation10complementEP9func_decl(ptr noundef nonnull align 8 dereferenceable(128) %0, ptr readnone captures(none) %1) unnamed_addr #3 align 2 {
  %3 = getelementptr inbounds nuw i8, ptr %0, i64 8
  %4 = load ptr, ptr %3, align 8, !tbaa !167
  %5 = getelementptr inbounds nuw i8, ptr %0, i64 16
  %6 = load ptr, ptr %4, align 8, !tbaa !3
  %7 = getelementptr inbounds nuw i8, ptr %6, i64 40
  %8 = load ptr, ptr %7, align 8
  %9 = tail call noundef ptr %8(ptr noundef nonnull align 8 dereferenceable(129) %4, ptr noundef nonnull align 8 dereferenceable(8) %5)
  %.not.i = icmp eq ptr %9, null
  br i1 %.not.i, label %_ZN7datalog11udoc_plugin3getEPNS_13relation_baseE.exit, label %10

10:                                               ; preds = %2
  %11 = tail call ptr @__dynamic_cast(ptr nonnull readonly %9, ptr nonnull @_ZTIN7datalog13relation_baseE, ptr nonnull @_ZTIN7datalog13udoc_relationE, i64 0) #24
  br label %_ZN7datalog11udoc_plugin3getEPNS_13relation_baseE.exit

_ZN7datalog11udoc_plugin3getEPNS_13relation_baseE.exit: ; preds = %2, %10
  %12 = phi ptr [ %11, %10 ], [ null, %2 ]
  %13 = getelementptr inbounds nuw i8, ptr %0, i64 40
  %14 = getelementptr inbounds nuw i8, ptr %0, i64 32
  %15 = load ptr, ptr %14, align 8, !tbaa !144
  %16 = getelementptr inbounds nuw i8, ptr %12, i64 40
  tail call void @_ZNK10union_bvecI11doc_manager3docE10complementERS0_RS2_(ptr noundef nonnull align 8 dereferenceable(80) %13, ptr noundef nonnull align 8 dereferenceable(1080) %15, ptr noundef nonnull align 8 dereferenceable(80) %16)
  ret ptr %12
}